(dp0
S'petal_width'
p1
(dp2
S'0.8>'
p3
(dp4
S'petal_length'
p5
(dp6
S'4.75<='
p7
(dp8
S'sepal_length'
p9
(dp10
S'4.95>'
p11
S'Iris-versicolor'
p12
sS'4.95<='
p13
(dp14
S'sepal_width'
p15
(dp16
S'2.45>'
p17
S'Iris-virginica'
p18
sS'2.45<='
p19
S'Iris-versicolor'
p20
sssssS'4.75>'
p21
S'Iris-virginica'
p22
sssS'0.8<='
p23
S'Iris-setosa'
p24
ss.